; Function Attrs: nounwind uwtable
define void @Gia_ManAigPrintPiLevels(ptr noundef readonly captures(none) %0) local_unnamed_addr #0 {
  %2 = getelementptr i8, ptr %0, i64 32
  %3 = getelementptr i8, ptr %0, i64 16
  %4 = getelementptr i8, ptr %0, i64 64
  %.val12 = load i32, ptr %3, align 8
  %.val713 = load ptr, ptr %4, align 8
  %5 = getelementptr i8, ptr %.val713, i64 4
  %.val7.val14 = load i32, ptr %5, align 4
  %6 = icmp sgt i32 %.val7.val14, %.val12
  br i1 %6, label %.lr.ph, label %.critedge

.lr.ph:                                           ; preds = %1
  %7 = getelementptr i8, ptr %0, i64 160
  br label %8

8:                                                ; preds = %.lr.ph, %Gia_ObjLevel.exit
  %indvars.iv = phi i64 [ 0, %.lr.ph ], [ %indvars.iv.next, %Gia_ObjLevel.exit ]
  %.val716 = phi ptr [ %.val713, %.lr.ph ], [ %.val7, %Gia_ObjLevel.exit ]
  %.val8 = load ptr, ptr %2, align 8
  %.not = icmp eq ptr %.val8, null
  br i1 %.not, label %.critedge, label %9

9:                                                ; preds = %8
  %10 = getelementptr i8, ptr %.val716, i64 8
  %.val9.val = load ptr, ptr %10, align 8
  %11 = getelementptr inbounds nuw i32, ptr %.val9.val, i64 %indvars.iv
  %12 = load i32, ptr %11, align 4
  %13 = zext i32 %12 to i64
  %.val11 = load ptr, ptr %7, align 8
  %14 = add nsw i32 %12, 1
  %15 = getelementptr inbounds nuw i8, ptr %.val11, i64 4
  %16 = load i32, ptr %15, align 4
  %.not.i.not.i.i.i = icmp sgt i32 %16, %12
  br i1 %.not.i.not.i.i.i, label %Gia_ObjLevel.exit, label %17

17:                                               ; preds = %9
  %18 = load i32, ptr %.val11, align 8
  %19 = shl nsw i32 %18, 1
  %.not.i.i.i = icmp sgt i32 %19, %12
  %.not.i.i.not.i.i.i = icmp sgt i32 %18, %12
  br i1 %.not.i.i.i, label %32, label %20

20:                                               ; preds = %17
  br i1 %.not.i.i.not.i.i.i, label %Vec_IntGrow.exit.i.i.i.i, label %21

21:                                               ; preds = %20
  %22 = getelementptr inbounds nuw i8, ptr %.val11, i64 8
  %23 = load ptr, ptr %22, align 8
  %.not9.i.i.i.i.i = icmp eq ptr %23, null
  %24 = sext i32 %14 to i64
  %25 = shl nsw i64 %24, 2
  br i1 %.not9.i.i.i.i.i, label %28, label %26

26:                                               ; preds = %21
  %27 = tail call ptr @realloc(ptr noundef nonnull %23, i64 noundef %25) #13
  br label %30

28:                                               ; preds = %21
  %29 = tail call noalias ptr @malloc(i64 noundef %25) #14
  br label %30

30:                                               ; preds = %28, %26
  %31 = phi ptr [ %27, %26 ], [ %29, %28 ]
  store ptr %31, ptr %22, align 8
  br label %Vec_IntGrow.exit.sink.split.i.i.i.i

32:                                               ; preds = %17
  br i1 %.not.i.i.not.i.i.i, label %Vec_IntGrow.exit.i.i.i.i, label %33

33:                                               ; preds = %32
  %34 = getelementptr inbounds nuw i8, ptr %.val11, i64 8
  %35 = load ptr, ptr %34, align 8
  %.not9.i21.i.i.i.i = icmp eq ptr %35, null
  %36 = sext i32 %19 to i64
  %37 = shl nsw i64 %36, 2
  br i1 %.not9.i21.i.i.i.i, label %40, label %38

38:                                               ; preds = %33
  %39 = tail call ptr @realloc(ptr noundef nonnull %35, i64 noundef %37) #13
  br label %42

40:                                               ; preds = %33
  %41 = tail call noalias ptr @malloc(i64 noundef %37) #14
  br label %42

42:                                               ; preds = %40, %38
  %43 = phi ptr [ %39, %38 ], [ %41, %40 ]
  store ptr %43, ptr %34, align 8
  br label %Vec_IntGrow.exit.sink.split.i.i.i.i

Vec_IntGrow.exit.sink.split.i.i.i.i:              ; preds = %42, %30
  %.sink.i.i.i.i = phi i32 [ %19, %42 ], [ %14, %30 ]
  store i32 %.sink.i.i.i.i, ptr %.val11, align 8
  %.pre.i.i.i = load i32, ptr %15, align 4
  br label %Vec_IntGrow.exit.i.i.i.i

Vec_IntGrow.exit.i.i.i.i:                         ; preds = %Vec_IntGrow.exit.sink.split.i.i.i.i, %32, %20
  %44 = phi i32 [ %.pre.i.i.i, %Vec_IntGrow.exit.sink.split.i.i.i.i ], [ %16, %32 ], [ %16, %20 ]
  %.not3.i.i.i = icmp sgt i32 %44, %12
  br i1 %.not3.i.i.i, label %._crit_edge.i.i.i.i, label %.lr.ph.i.i.i.i

.lr.ph.i.i.i.i:                                   ; preds = %Vec_IntGrow.exit.i.i.i.i
  %45 = getelementptr inbounds nuw i8, ptr %.val11, i64 8
  %46 = sext i32 %44 to i64
  %wide.trip.count.i.i.i.i = sext i32 %14 to i64
  br label %47

47:                                               ; preds = %47, %.lr.ph.i.i.i.i
  %indvars.iv.i.i.i.i = phi i64 [ %46, %.lr.ph.i.i.i.i ], [ %indvars.iv.next.i.i.i.i, %47 ]
  %48 = load ptr, ptr %45, align 8
  %49 = getelementptr inbounds i32, ptr %48, i64 %indvars.iv.i.i.i.i
  store i32 0, ptr %49, align 4
  %indvars.iv.next.i.i.i.i = add nsw i64 %indvars.iv.i.i.i.i, 1
  %exitcond.not.i.i.i.i = icmp eq i64 %indvars.iv.next.i.i.i.i, %wide.trip.count.i.i.i.i
  br i1 %exitcond.not.i.i.i.i, label %._crit_edge.i.i.i.i, label %47, !llvm.loop !4

._crit_edge.i.i.i.i:                              ; preds = %47, %Vec_IntGrow.exit.i.i.i.i
  store i32 %14, ptr %15, align 4
  br label %Gia_ObjLevel.exit

Gia_ObjLevel.exit:                                ; preds = %9, %._crit_edge.i.i.i.i
  %50 = getelementptr i8, ptr %.val11, i64 8
  %.val.i.i.i = load ptr, ptr %50, align 8
  %sext.i = shl nuw i64 %13, 32
  %51 = ashr exact i64 %sext.i, 30
  %52 = getelementptr inbounds i8, ptr %.val.i.i.i, i64 %51
  %53 = load i32, ptr %52, align 4
  %54 = tail call i32 (ptr, ...) @printf(ptr noundef nonnull dereferenceable(1) @.str, i32 noundef %53)
  %indvars.iv.next = add nuw nsw i64 %indvars.iv, 1
  %.val = load i32, ptr %3, align 8
  %.val7 = load ptr, ptr %4, align 8
  %55 = getelementptr i8, ptr %.val7, i64 4
  %.val7.val = load i32, ptr %55, align 4
  %56 = sub nsw i32 %.val7.val, %.val
  %57 = sext i32 %56 to i64
  %58 = icmp slt i64 %indvars.iv.next, %57
  br i1 %58, label %8, label %.critedge, !llvm.loop !6

.critedge:                                        ; preds = %8, %Gia_ObjLevel.exit, %1
  %putchar = tail call i32 @putchar(i32 10)
  ret void
}